target datalayout = "e-m:e-p270:32:32-p271:32:32-p272:64:64-i64:64-i128:128-f80:128-n8:16:32:64-S128"
target triple = "x86_64-pc-linux-gnu"

%struct._lv_chart_t = type { %struct._lv_obj_t, %struct.lv_ll_t, %struct.lv_ll_t, [2 x i32], [2 x i32], [2 x i32], [2 x i32], i32, i32, i32, i32, i8 }
%struct._lv_obj_t = type { ptr, ptr, ptr, ptr, ptr, %struct.lv_area_t, i32, i16, i16 }
%struct.lv_area_t = type { i32, i32, i32, i32 }
%struct.lv_ll_t = type { i32, ptr, ptr }
%struct._lv_chart_series_t = type { ptr, ptr, %struct.lv_color_t, i32, i8 }
%struct.lv_color_t = type { i8, i8, i8 }

; Function Attrs: nounwind uwtable
define void @lv_chart_set_x_start_point(ptr noundef %0, ptr noundef %1, i32 noundef %2) #0 {
  %4 = alloca ptr, align 8
  %5 = alloca ptr, align 8
  %6 = alloca i32, align 4
  %7 = alloca ptr, align 8
  %8 = alloca i32, align 4
  store ptr %0, ptr %4, align 8, !tbaa !3
  store ptr %1, ptr %5, align 8, !tbaa !3
  store i32 %2, ptr %6, align 4, !tbaa !7
  br label %9

9:                                                ; preds = %3
  br label %10

10:                                               ; preds = %9
  br label %11

11:                                               ; preds = %10
  %12 = load ptr, ptr %5, align 8, !tbaa !3
  %13 = icmp ne ptr %12, null
  br i1 %13, label %18, label %14

14:                                               ; preds = %11
  br label %15

15:                                               ; preds = %14
  br label %16

16:                                               ; preds = %15
  br label %17

17:                                               ; preds = %16, %17
  br label %17

18:                                               ; preds = %11
  br label %19

19:                                               ; preds = %18
  call void @llvm.lifetime.start.p0(i64 8, ptr %7) #5
  %20 = load ptr, ptr %4, align 8, !tbaa !3
  store ptr %20, ptr %7, align 8, !tbaa !3
  %21 = load i32, ptr %6, align 4, !tbaa !7
  %22 = load ptr, ptr %7, align 8, !tbaa !3
  %23 = getelementptr inbounds nuw %struct._lv_chart_t, ptr %22, i32 0, i32 10
  %24 = load i32, ptr %23, align 4, !tbaa !16
  %25 = icmp uge i32 %21, %24
  br i1 %25, label %26, label %27

26:                                               ; preds = %19
  store i32 1, ptr %8, align 4
  br label %31

27:                                               ; preds = %19
  %28 = load i32, ptr %6, align 4, !tbaa !7
  %29 = load ptr, ptr %5, align 8, !tbaa !3
  %30 = getelementptr inbounds nuw %struct._lv_chart_series_t, ptr %29, i32 0, i32 3
  store i32 %28, ptr %30, align 4, !tbaa !32
  store i32 0, ptr %8, align 4
  br label %31

31:                                               ; preds = %27, %26
  call void @llvm.lifetime.end.p0(i64 8, ptr %7) #5
  %32 = load i32, ptr %8, align 4
  switch i32 %32, label %34 [
    i32 0, label %33
    i32 1, label %33
  ]

33:                                               ; preds = %31, %31
  ret void

34:                                               ; preds = %31
  unreachable
}