; Function Attrs: nofree norecurse nosync nounwind memory(argmem: readwrite) uwtable
define void @lv_chart_set_x_start_point(ptr nocapture noundef readonly %0, ptr noundef writeonly %1, i32 noundef %2) local_unnamed_addr #6 {
  %.not = icmp eq ptr %1, null
  br i1 %.not, label %.preheader, label %4

.preheader:                                       ; preds = %3, %.preheader
  br label %.preheader

4:                                                ; preds = %3
  %5 = getelementptr inbounds nuw i8, ptr %0, i64 156
  %6 = load i32, ptr %5, align 4, !tbaa !15
  %.not6 = icmp ult i32 %2, %6
  br i1 %.not6, label %7, label %9

7:                                                ; preds = %4
  %8 = getelementptr inbounds nuw i8, ptr %1, i64 20
  store i32 %2, ptr %8, align 4, !tbaa !66
  br label %9

9:                                                ; preds = %4, %7
  ret void
}